; Function Attrs: nofree norecurse nosync nounwind memory(read, inaccessiblemem: none) uwtable
define zeroext i1 @lv_obj_is_group_def(ptr noundef readonly captures(none) %0) local_unnamed_addr #2 {
  br label %2

2:                                                ; preds = %3, %1
  %.0.in = phi ptr [ %0, %1 ], [ %.0, %3 ]
  %.0 = load ptr, ptr %.0.in, align 8, !tbaa !47
  %cond = icmp eq ptr %.0, null
  br i1 %cond, label %.loopexit, label %3

3:                                                ; preds = %2
  %4 = getelementptr inbounds nuw i8, ptr %.0, i64 56
  %5 = load i32, ptr %4, align 8
  %6 = and i32 %5, 12
  %7 = icmp eq i32 %6, 0
  br i1 %7, label %2, label %.critedge, !llvm.loop !49

.critedge:                                        ; preds = %3
  %8 = icmp eq i32 %6, 4
  br label %.loopexit

.loopexit:                                        ; preds = %2, %.critedge
  %.07 = phi i1 [ %8, %.critedge ], [ false, %2 ]
  ret i1 %.07
}